target datalayout = "e-m:e-p270:32:32-p271:32:32-p272:64:64-i64:64-i128:128-f80:128-n8:16:32:64-S128"
target triple = "x86_64-pc-linux-gnu"

%struct.evp_pkey_st = type { i32, i32, ptr, ptr, ptr, %union.legacy_pkey_st, %union.legacy_pkey_st, %struct.CRYPTO_REF_COUNT, ptr, ptr, i32, i8, %struct.crypto_ex_data_st, ptr, ptr, i64, ptr, i64, %struct.anon }
%union.legacy_pkey_st = type { ptr }
%struct.CRYPTO_REF_COUNT = type { i32 }
%struct.crypto_ex_data_st = type { ptr, ptr }
%struct.anon = type { i32, i32, i32 }

; Function Attrs: nounwind uwtable
define i32 @EVP_PKEY_get_id(ptr noundef %0) #0 {
  %2 = alloca ptr, align 8
  store ptr %0, ptr %2, align 8, !tbaa !3
  %3 = load ptr, ptr %2, align 8, !tbaa !3
  %4 = getelementptr inbounds nuw %struct.evp_pkey_st, ptr %3, i32 0, i32 0
  %5 = load i32, ptr %4, align 8, !tbaa !29
  ret i32 %5
}

; Function Attrs: nounwind uwtable
define i32 @EVP_PKEY_type_names_do_all(ptr noundef %0, ptr noundef %1, ptr noundef %2) #0 {
  %4 = alloca i32, align 4
  %5 = alloca ptr, align 8
  %6 = alloca ptr, align 8
  %7 = alloca ptr, align 8
  %8 = alloca ptr, align 8
  store ptr %0, ptr %5, align 8, !tbaa !3
  store ptr %1, ptr %6, align 8, !tbaa !31
  store ptr %2, ptr %7, align 8, !tbaa !31
  %9 = load ptr, ptr %5, align 8, !tbaa !3
  %10 = getelementptr inbounds nuw %struct.evp_pkey_st, ptr %9, i32 0, i32 0
  %11 = load i32, ptr %10, align 8, !tbaa !29
  %12 = icmp ne i32 %11, 0
  br i1 %12, label %19, label %13

13:                                               ; preds = %3
  %14 = load ptr, ptr %5, align 8, !tbaa !3
  %15 = getelementptr inbounds nuw %struct.evp_pkey_st, ptr %14, i32 0, i32 13
  %16 = load ptr, ptr %15, align 8, !tbaa !32
  %17 = icmp ne ptr %16, null
  br i1 %17, label %19, label %18

18:                                               ; preds = %13
  store i32 0, ptr %4, align 4
  br label %38

19:                                               ; preds = %13, %3
  %20 = load ptr, ptr %5, align 8, !tbaa !3
  %21 = getelementptr inbounds nuw %struct.evp_pkey_st, ptr %20, i32 0, i32 13
  %22 = load ptr, ptr %21, align 8, !tbaa !32
  %23 = icmp ne ptr %22, null
  br i1 %23, label %31, label %24

24:                                               ; preds = %19
  call void @llvm.lifetime.start.p0(i64 8, ptr %8) #8
  %25 = load ptr, ptr %5, align 8, !tbaa !3
  %26 = call i32 @EVP_PKEY_get_id(ptr noundef %25)
  %27 = call ptr @OBJ_nid2sn(i32 noundef %26)
  store ptr %27, ptr %8, align 8, !tbaa !39
  %28 = load ptr, ptr %6, align 8, !tbaa !31
  %29 = load ptr, ptr %8, align 8, !tbaa !39
  %30 = load ptr, ptr %7, align 8, !tbaa !31
  call void %28(ptr noundef %29, ptr noundef %30)
  store i32 1, ptr %4, align 4
  call void @llvm.lifetime.end.p0(i64 8, ptr %8) #8
  br label %38

31:                                               ; preds = %19
  %32 = load ptr, ptr %5, align 8, !tbaa !3
  %33 = getelementptr inbounds nuw %struct.evp_pkey_st, ptr %32, i32 0, i32 13
  %34 = load ptr, ptr %33, align 8, !tbaa !32
  %35 = load ptr, ptr %6, align 8, !tbaa !31
  %36 = load ptr, ptr %7, align 8, !tbaa !31
  %37 = call i32 @EVP_KEYMGMT_names_do_all(ptr noundef %34, ptr noundef %35, ptr noundef %36)
  store i32 %37, ptr %4, align 4
  br label %38

38:                                               ; preds = %31, %24, %18
  %39 = load i32, ptr %4, align 4
  ret i32 %39
}