; Function Attrs: nounwind uwtable
define i32 @EVP_PKEY_type_names_do_all(ptr noundef readonly captures(none) %0, ptr noundef %1, ptr noundef %2) local_unnamed_addr #0 {
  %4 = load i32, ptr %0, align 8, !tbaa !26
  %.not = icmp eq i32 %4, 0
  %5 = getelementptr inbounds nuw i8, ptr %0, i64 96
  %6 = load ptr, ptr %5, align 8, !tbaa !30
  %.not11 = icmp eq ptr %6, null
  br i1 %.not, label %7, label %8

7:                                                ; preds = %3
  br i1 %.not11, label %12, label %.thread

8:                                                ; preds = %3
  br i1 %.not11, label %9, label %.thread

9:                                                ; preds = %8
  %10 = tail call ptr @OBJ_nid2sn(i32 noundef %4) #12
  tail call void %1(ptr noundef %10, ptr noundef %2) #12
  br label %12

.thread:                                          ; preds = %7, %8
  %11 = tail call i32 @EVP_KEYMGMT_names_do_all(ptr noundef nonnull %6, ptr noundef %1, ptr noundef %2) #12
  br label %12

12:                                               ; preds = %7, %.thread, %9
  %.0 = phi i32 [ %11, %.thread ], [ 1, %9 ], [ 0, %7 ]
  ret i32 %.0
}